#include <math.h>
#include <stdio.h>
#include <stdlib.h>
#include <string.h>

int main(){
	char zfc[3000];
	gets(zfc);
	int n=strlen(zfc),w;
	for(w=0;w<=n;w++){
		if(zfc[w]==' '||zfc[w]==','||zfc[w]=='\0'){
			break;
		}
	}
	if(w==n){printf("%s\n%s",zfc,zfc);}
	else{
	  int b,d,k,j;
	  int a=-1,c=-1;
	  b=w;
	  d=w;
	  k=w;
	  int i;
	  for(i=b+1;i<n;i++){
		if((zfc[i]==' '||zfc[i]==',')&&zfc[i+1]!=' '&&zfc[i+1]!=','){
			j=k;
			k=i;
			if(k-j>b-a){
				a=j;
				b=k;
			}
			else{
			   if(k-j<d-c){
				c=j;
				d=k;
			   }
			}
		}
	  }
	 if(n-k>b-a){a=k;b=n;}
	 if(n-k<d-c){c=k;d=n;}
	 int p,q;
	 for(p=a+1;p<b-1;p++){
		printf("%c",zfc[p]);
	 }
	 printf("%c\n",zfc[b-1]);
	 for(q=c+1;q<d;q++){
		printf("%c",zfc[q]);
	 }
	}
	return 0;
}
