; ModuleID = '24/1542.c'
source_filename = "24/1542.c"
target datalayout = "e-m:e-p270:32:32-p271:32:32-p272:64:64-i64:64-f80:128-n8:16:32:64-S128"
target triple = "x86_64-pc-linux-gnu"

@.str = private unnamed_addr constant [6 x i8] c"%s\0A%s\00", align 1
@.str.1 = private unnamed_addr constant [3 x i8] c"%c\00", align 1
@.str.2 = private unnamed_addr constant [4 x i8] c"%c\0A\00", align 1

; Function Attrs: noinline nounwind uwtable
define dso_local i32 @main() #0 {
  %1 = alloca i32, align 4
  %2 = alloca [3000 x i8], align 16
  %3 = alloca i32, align 4
  %4 = alloca i32, align 4
  %5 = alloca i32, align 4
  %6 = alloca i32, align 4
  %7 = alloca i32, align 4
  %8 = alloca i32, align 4
  %9 = alloca i32, align 4
  %10 = alloca i32, align 4
  %11 = alloca i32, align 4
  %12 = alloca i32, align 4
  %13 = alloca i32, align 4
  store i32 0, i32* %1, align 4
  %14 = getelementptr inbounds [3000 x i8], [3000 x i8]* %2, i64 0, i64 0
  %15 = call i32 (i8*, ...) bitcast (i32 (...)* @gets to i32 (i8*, ...)*)(i8* %14)
  %16 = getelementptr inbounds [3000 x i8], [3000 x i8]* %2, i64 0, i64 0
  %17 = call i64 @strlen(i8* %16) #3
  %18 = trunc i64 %17 to i32
  store i32 %18, i32* %3, align 4
  store i32 0, i32* %4, align 4
  br label %19

19:                                               ; preds = %46, %0
  %20 = load i32, i32* %4, align 4
  %21 = load i32, i32* %3, align 4
  %22 = icmp sle i32 %20, %21
  br i1 %22, label %23, label %49

23:                                               ; preds = %19
  %24 = load i32, i32* %4, align 4
  %25 = sext i32 %24 to i64
  %26 = getelementptr inbounds [3000 x i8], [3000 x i8]* %2, i64 0, i64 %25
  %27 = load i8, i8* %26, align 1
  %28 = sext i8 %27 to i32
  %29 = icmp eq i32 %28, 32
  br i1 %29, label %44, label %30

30:                                               ; preds = %23
  %31 = load i32, i32* %4, align 4
  %32 = sext i32 %31 to i64
  %33 = getelementptr inbounds [3000 x i8], [3000 x i8]* %2, i64 0, i64 %32
  %34 = load i8, i8* %33, align 1
  %35 = sext i8 %34 to i32
  %36 = icmp eq i32 %35, 44
  br i1 %36, label %44, label %37

37:                                               ; preds = %30
  %38 = load i32, i32* %4, align 4
  %39 = sext i32 %38 to i64
  %40 = getelementptr inbounds [3000 x i8], [3000 x i8]* %2, i64 0, i64 %39
  %41 = load i8, i8* %40, align 1
  %42 = sext i8 %41 to i32
  %43 = icmp eq i32 %42, 0
  br i1 %43, label %44, label %45

44:                                               ; preds = %37, %30, %23
  br label %49

45:                                               ; preds = %37
  br label %46

46:                                               ; preds = %45
  %47 = load i32, i32* %4, align 4
  %48 = add nsw i32 %47, 1
  store i32 %48, i32* %4, align 4
  br label %19

49:                                               ; preds = %44, %19
  %50 = load i32, i32* %4, align 4
  %51 = load i32, i32* %3, align 4
  %52 = icmp eq i32 %50, %51
  br i1 %52, label %53, label %57

53:                                               ; preds = %49
  %54 = getelementptr inbounds [3000 x i8], [3000 x i8]* %2, i64 0, i64 0
  %55 = getelementptr inbounds [3000 x i8], [3000 x i8]* %2, i64 0, i64 0
  %56 = call i32 (i8*, ...) @printf(i8* getelementptr inbounds ([6 x i8], [6 x i8]* @.str, i64 0, i64 0), i8* %54, i8* %55)
  br label %192

57:                                               ; preds = %49
  store i32 -1, i32* %9, align 4
  store i32 -1, i32* %10, align 4
  %58 = load i32, i32* %4, align 4
  store i32 %58, i32* %5, align 4
  %59 = load i32, i32* %4, align 4
  store i32 %59, i32* %6, align 4
  %60 = load i32, i32* %4, align 4
  store i32 %60, i32* %7, align 4
  %61 = load i32, i32* %5, align 4
  %62 = add nsw i32 %61, 1
  store i32 %62, i32* %11, align 4
  br label %63

63:                                               ; preds = %124, %57
  %64 = load i32, i32* %11, align 4
  %65 = load i32, i32* %3, align 4
  %66 = icmp slt i32 %64, %65
  br i1 %66, label %67, label %127

67:                                               ; preds = %63
  %68 = load i32, i32* %11, align 4
  %69 = sext i32 %68 to i64
  %70 = getelementptr inbounds [3000 x i8], [3000 x i8]* %2, i64 0, i64 %69
  %71 = load i8, i8* %70, align 1
  %72 = sext i8 %71 to i32
  %73 = icmp eq i32 %72, 32
  br i1 %73, label %81, label %74

74:                                               ; preds = %67
  %75 = load i32, i32* %11, align 4
  %76 = sext i32 %75 to i64
  %77 = getelementptr inbounds [3000 x i8], [3000 x i8]* %2, i64 0, i64 %76
  %78 = load i8, i8* %77, align 1
  %79 = sext i8 %78 to i32
  %80 = icmp eq i32 %79, 44
  br i1 %80, label %81, label %123

81:                                               ; preds = %74, %67
  %82 = load i32, i32* %11, align 4
  %83 = add nsw i32 %82, 1
  %84 = sext i32 %83 to i64
  %85 = getelementptr inbounds [3000 x i8], [3000 x i8]* %2, i64 0, i64 %84
  %86 = load i8, i8* %85, align 1
  %87 = sext i8 %86 to i32
  %88 = icmp ne i32 %87, 32
  br i1 %88, label %89, label %123

89:                                               ; preds = %81
  %90 = load i32, i32* %11, align 4
  %91 = add nsw i32 %90, 1
  %92 = sext i32 %91 to i64
  %93 = getelementptr inbounds [3000 x i8], [3000 x i8]* %2, i64 0, i64 %92
  %94 = load i8, i8* %93, align 1
  %95 = sext i8 %94 to i32
  %96 = icmp ne i32 %95, 44
  br i1 %96, label %97, label %123

97:                                               ; preds = %89
  %98 = load i32, i32* %7, align 4
  store i32 %98, i32* %8, align 4
  %99 = load i32, i32* %11, align 4
  store i32 %99, i32* %7, align 4
  %100 = load i32, i32* %7, align 4
  %101 = load i32, i32* %8, align 4
  %102 = sub nsw i32 %100, %101
  %103 = load i32, i32* %5, align 4
  %104 = load i32, i32* %9, align 4
  %105 = sub nsw i32 %103, %104
  %106 = icmp sgt i32 %102, %105
  br i1 %106, label %107, label %110

107:                                              ; preds = %97
  %108 = load i32, i32* %8, align 4
  store i32 %108, i32* %9, align 4
  %109 = load i32, i32* %7, align 4
  store i32 %109, i32* %5, align 4
  br label %122

110:                                              ; preds = %97
  %111 = load i32, i32* %7, align 4
  %112 = load i32, i32* %8, align 4
  %113 = sub nsw i32 %111, %112
  %114 = load i32, i32* %6, align 4
  %115 = load i32, i32* %10, align 4
  %116 = sub nsw i32 %114, %115
  %117 = icmp slt i32 %113, %116
  br i1 %117, label %118, label %121

118:                                              ; preds = %110
  %119 = load i32, i32* %8, align 4
  store i32 %119, i32* %10, align 4
  %120 = load i32, i32* %7, align 4
  store i32 %120, i32* %6, align 4
  br label %121

121:                                              ; preds = %118, %110
  br label %122

122:                                              ; preds = %121, %107
  br label %123

123:                                              ; preds = %122, %89, %81, %74
  br label %124

124:                                              ; preds = %123
  %125 = load i32, i32* %11, align 4
  %126 = add nsw i32 %125, 1
  store i32 %126, i32* %11, align 4
  br label %63

127:                                              ; preds = %63
  %128 = load i32, i32* %3, align 4
  %129 = load i32, i32* %7, align 4
  %130 = sub nsw i32 %128, %129
  %131 = load i32, i32* %5, align 4
  %132 = load i32, i32* %9, align 4
  %133 = sub nsw i32 %131, %132
  %134 = icmp sgt i32 %130, %133
  br i1 %134, label %135, label %138

135:                                              ; preds = %127
  %136 = load i32, i32* %7, align 4
  store i32 %136, i32* %9, align 4
  %137 = load i32, i32* %3, align 4
  store i32 %137, i32* %5, align 4
  br label %138

138:                                              ; preds = %135, %127
  %139 = load i32, i32* %3, align 4
  %140 = load i32, i32* %7, align 4
  %141 = sub nsw i32 %139, %140
  %142 = load i32, i32* %6, align 4
  %143 = load i32, i32* %10, align 4
  %144 = sub nsw i32 %142, %143
  %145 = icmp slt i32 %141, %144
  br i1 %145, label %146, label %149

146:                                              ; preds = %138
  %147 = load i32, i32* %7, align 4
  store i32 %147, i32* %10, align 4
  %148 = load i32, i32* %3, align 4
  store i32 %148, i32* %6, align 4
  br label %149

149:                                              ; preds = %146, %138
  %150 = load i32, i32* %9, align 4
  %151 = add nsw i32 %150, 1
  store i32 %151, i32* %12, align 4
  br label %152

152:                                              ; preds = %164, %149
  %153 = load i32, i32* %12, align 4
  %154 = load i32, i32* %5, align 4
  %155 = sub nsw i32 %154, 1
  %156 = icmp slt i32 %153, %155
  br i1 %156, label %157, label %167

157:                                              ; preds = %152
  %158 = load i32, i32* %12, align 4
  %159 = sext i32 %158 to i64
  %160 = getelementptr inbounds [3000 x i8], [3000 x i8]* %2, i64 0, i64 %159
  %161 = load i8, i8* %160, align 1
  %162 = sext i8 %161 to i32
  %163 = call i32 (i8*, ...) @printf(i8* getelementptr inbounds ([3 x i8], [3 x i8]* @.str.1, i64 0, i64 0), i32 %162)
  br label %164

164:                                              ; preds = %157
  %165 = load i32, i32* %12, align 4
  %166 = add nsw i32 %165, 1
  store i32 %166, i32* %12, align 4
  br label %152

167:                                              ; preds = %152
  %168 = load i32, i32* %5, align 4
  %169 = sub nsw i32 %168, 1
  %170 = sext i32 %169 to i64
  %171 = getelementptr inbounds [3000 x i8], [3000 x i8]* %2, i64 0, i64 %170
  %172 = load i8, i8* %171, align 1
  %173 = sext i8 %172 to i32
  %174 = call i32 (i8*, ...) @printf(i8* getelementptr inbounds ([4 x i8], [4 x i8]* @.str.2, i64 0, i64 0), i32 %173)
  %175 = load i32, i32* %10, align 4
  %176 = add nsw i32 %175, 1
  store i32 %176, i32* %13, align 4
  br label %177

177:                                              ; preds = %188, %167
  %178 = load i32, i32* %13, align 4
  %179 = load i32, i32* %6, align 4
  %180 = icmp slt i32 %178, %179
  br i1 %180, label %181, label %191

181:                                              ; preds = %177
  %182 = load i32, i32* %13, align 4
  %183 = sext i32 %182 to i64
  %184 = getelementptr inbounds [3000 x i8], [3000 x i8]* %2, i64 0, i64 %183
  %185 = load i8, i8* %184, align 1
  %186 = sext i8 %185 to i32
  %187 = call i32 (i8*, ...) @printf(i8* getelementptr inbounds ([3 x i8], [3 x i8]* @.str.1, i64 0, i64 0), i32 %186)
  br label %188

188:                                              ; preds = %181
  %189 = load i32, i32* %13, align 4
  %190 = add nsw i32 %189, 1
  store i32 %190, i32* %13, align 4
  br label %177

191:                                              ; preds = %177
  br label %192

192:                                              ; preds = %191, %53
  ret i32 0
}

declare dso_local i32 @gets(...) #1

; Function Attrs: nounwind readonly
declare dso_local i64 @strlen(i8*) #2

declare dso_local i32 @printf(i8*, ...) #1


!llvm.module.flags = !{!0}
!llvm.ident = !{!1}

!0 = !{i32 1, !"wchar_size", i32 4}
!1 = !{!"clang version 10.0.0-4ubuntu1 "}
